target datalayout = "e-m:e-p270:32:32-p271:32:32-p272:64:64-i64:64-i128:128-f80:128-n8:16:32:64-S128"
target triple = "x86_64-pc-linux-gnu"

%struct.Vec_Ptr_t_ = type { i32, i32, ptr }
%struct.Abc_Obj_t_ = type { ptr, ptr, i32, i32, %struct.Vec_Int_t_, %struct.Vec_Int_t_, %union.anon, %union.anon.0 }
%struct.Vec_Int_t_ = type { i32, i32, ptr }
%union.anon = type { ptr }
%union.anon.0 = type { ptr }
%struct.Abc_Ntk_t_ = type { i32, i32, ptr, ptr, ptr, ptr, ptr, ptr, ptr, ptr, ptr, ptr, ptr, [11 x i32], i32, i32, i32, i32, ptr, i32, ptr, ptr, i32, i32, i32, double, i32, %struct.Vec_Int_t_, ptr, ptr, ptr, ptr, ptr, float, i32, ptr, ptr, ptr, ptr, ptr, ptr, ptr, ptr, ptr, ptr, ptr, ptr, ptr, ptr, ptr, ptr, ptr, ptr, ptr, ptr, ptr, ptr }

; Function Attrs: inlinehint nounwind uwtable
define internal ptr @Vec_PtrEntry(ptr noundef %0, i32 noundef %1) #3 {
  %3 = alloca ptr, align 8
  %4 = alloca i32, align 4
  store ptr %0, ptr %3, align 8, !tbaa !10
  store i32 %1, ptr %4, align 4, !tbaa !8
  %5 = load ptr, ptr %3, align 8, !tbaa !10
  %6 = getelementptr inbounds nuw %struct.Vec_Ptr_t_, ptr %5, i32 0, i32 2
  %7 = load ptr, ptr %6, align 8, !tbaa !14
  %8 = load i32, ptr %4, align 4, !tbaa !8
  %9 = sext i32 %8 to i64
  %10 = getelementptr inbounds ptr, ptr %7, i64 %9
  %11 = load ptr, ptr %10, align 8, !tbaa !20
  ret ptr %11
}

; Function Attrs: inlinehint nounwind uwtable
define internal i32 @Abc_LatchIsInit1(ptr noundef %0) #3 {
  %2 = alloca ptr, align 8
  store ptr %0, ptr %2, align 8, !tbaa !12
  %3 = load ptr, ptr %2, align 8, !tbaa !12
  %4 = getelementptr inbounds nuw %struct.Abc_Obj_t_, ptr %3, i32 0, i32 6
  %5 = load ptr, ptr %4, align 8, !tbaa !41
  %6 = icmp eq ptr %5, inttoptr (i64 2 to ptr)
  %7 = zext i1 %6 to i32
  ret i32 %7
}

; Function Attrs: inlinehint nounwind uwtable
define internal i32 @Abc_LatchIsInit0(ptr noundef %0) #3 {
  %2 = alloca ptr, align 8
  store ptr %0, ptr %2, align 8, !tbaa !12
  %3 = load ptr, ptr %2, align 8, !tbaa !12
  %4 = getelementptr inbounds nuw %struct.Abc_Obj_t_, ptr %3, i32 0, i32 6
  %5 = load ptr, ptr %4, align 8, !tbaa !41
  %6 = icmp eq ptr %5, inttoptr (i64 1 to ptr)
  %7 = zext i1 %6 to i32
  ret i32 %7
}

; Function Attrs: inlinehint nounwind uwtable
define internal i32 @Abc_ObjIsLatch(ptr noundef %0) #3 {
  %2 = alloca ptr, align 8
  store ptr %0, ptr %2, align 8, !tbaa !12
  %3 = load ptr, ptr %2, align 8, !tbaa !12
  %4 = getelementptr inbounds nuw %struct.Abc_Obj_t_, ptr %3, i32 0, i32 3
  %5 = load i32, ptr %4, align 4
  %6 = and i32 %5, 15
  %7 = icmp eq i32 %6, 8
  %8 = zext i1 %7 to i32
  ret i32 %8
}

; Function Attrs: inlinehint nounwind uwtable
define internal ptr @Abc_NtkBox(ptr noundef %0, i32 noundef %1) #3 {
  %3 = alloca ptr, align 8
  %4 = alloca i32, align 4
  store ptr %0, ptr %3, align 8, !tbaa !3
  store i32 %1, ptr %4, align 4, !tbaa !8
  %5 = load ptr, ptr %3, align 8, !tbaa !3
  %6 = getelementptr inbounds nuw %struct.Abc_Ntk_t_, ptr %5, i32 0, i32 11
  %7 = load ptr, ptr %6, align 8, !tbaa !23
  %8 = load i32, ptr %4, align 4, !tbaa !8
  %9 = call ptr @Vec_PtrEntry(ptr noundef %7, i32 noundef %8)
  ret ptr %9
}

; Function Attrs: inlinehint nounwind uwtable
define internal i32 @Vec_PtrSize(ptr noundef %0) #3 {
  %2 = alloca ptr, align 8
  store ptr %0, ptr %2, align 8, !tbaa !10
  %3 = load ptr, ptr %2, align 8, !tbaa !10
  %4 = getelementptr inbounds nuw %struct.Vec_Ptr_t_, ptr %3, i32 0, i32 1
  %5 = load i32, ptr %4, align 4, !tbaa !40
  ret i32 %5
}

; Function Attrs: inlinehint nounwind uwtable
define internal ptr @Abc_NtkPi(ptr noundef %0, i32 noundef %1) #3 {
  %3 = alloca ptr, align 8
  %4 = alloca i32, align 4
  store ptr %0, ptr %3, align 8, !tbaa !3
  store i32 %1, ptr %4, align 4, !tbaa !8
  %5 = load ptr, ptr %3, align 8, !tbaa !3
  %6 = getelementptr inbounds nuw %struct.Abc_Ntk_t_, ptr %5, i32 0, i32 6
  %7 = load ptr, ptr %6, align 8, !tbaa !39
  %8 = load i32, ptr %4, align 4, !tbaa !8
  %9 = call ptr @Vec_PtrEntry(ptr noundef %7, i32 noundef %8)
  ret ptr %9
}

; Function Attrs: inlinehint nounwind uwtable
define internal i32 @Abc_NtkPiNum(ptr noundef %0) #3 {
  %2 = alloca ptr, align 8
  store ptr %0, ptr %2, align 8, !tbaa !3
  %3 = load ptr, ptr %2, align 8, !tbaa !3
  %4 = getelementptr inbounds nuw %struct.Abc_Ntk_t_, ptr %3, i32 0, i32 6
  %5 = load ptr, ptr %4, align 8, !tbaa !39
  %6 = call i32 @Vec_PtrSize(ptr noundef %5)
  ret i32 %6
}

; Function Attrs: inlinehint nounwind uwtable
define internal i32 @Abc_NtkObjNumMax(ptr noundef %0) #3 {
  %2 = alloca ptr, align 8
  store ptr %0, ptr %2, align 8, !tbaa !3
  %3 = load ptr, ptr %2, align 8, !tbaa !3
  %4 = getelementptr inbounds nuw %struct.Abc_Ntk_t_, ptr %3, i32 0, i32 5
  %5 = load ptr, ptr %4, align 8, !tbaa !38
  %6 = call i32 @Vec_PtrSize(ptr noundef %5)
  ret i32 %6
}

; Function Attrs: nounwind uwtable
define ptr @Sim_SimulateSeqRandom(ptr noundef %0, i32 noundef %1, i32 noundef %2) #0 {
  %4 = alloca ptr, align 8
  %5 = alloca i32, align 4
  %6 = alloca i32, align 4
  %7 = alloca ptr, align 8
  %8 = alloca ptr, align 8
  %9 = alloca i32, align 4
  store ptr %0, ptr %4, align 8, !tbaa !3
  store i32 %1, ptr %5, align 4, !tbaa !8
  store i32 %2, ptr %6, align 4, !tbaa !8
  call void @llvm.lifetime.start.p0(i64 8, ptr %7) #5
  call void @llvm.lifetime.start.p0(i64 8, ptr %8) #5
  call void @llvm.lifetime.start.p0(i64 4, ptr %9) #5
  %10 = load ptr, ptr %4, align 8, !tbaa !3
  %11 = call i32 @Abc_NtkObjNumMax(ptr noundef %10)
  %12 = load i32, ptr %6, align 4, !tbaa !8
  %13 = load i32, ptr %5, align 4, !tbaa !8
  %14 = mul nsw i32 %12, %13
  %15 = call ptr @Sim_UtilInfoAlloc(i32 noundef %11, i32 noundef %14, i32 noundef 0)
  store ptr %15, ptr %7, align 8, !tbaa !10
  %16 = load ptr, ptr %4, align 8, !tbaa !3
  %17 = call ptr @Abc_AigConst1(ptr noundef %16)
  store ptr %17, ptr %8, align 8, !tbaa !12
  %18 = load ptr, ptr %7, align 8, !tbaa !10
  %19 = getelementptr inbounds nuw %struct.Vec_Ptr_t_, ptr %18, i32 0, i32 2
  %20 = load ptr, ptr %19, align 8, !tbaa !14
  %21 = load ptr, ptr %8, align 8, !tbaa !12
  %22 = getelementptr inbounds nuw %struct.Abc_Obj_t_, ptr %21, i32 0, i32 2
  %23 = load i32, ptr %22, align 8, !tbaa !16
  %24 = sext i32 %23 to i64
  %25 = getelementptr inbounds ptr, ptr %20, i64 %24
  %26 = load ptr, ptr %25, align 8, !tbaa !20
  %27 = load i32, ptr %6, align 4, !tbaa !8
  %28 = load i32, ptr %5, align 4, !tbaa !8
  %29 = mul nsw i32 %27, %28
  call void @Sim_UtilSetConst(ptr noundef %26, i32 noundef %29, i32 noundef 1)
  store i32 0, ptr %9, align 4, !tbaa !8
  br label %30

30:                                               ; preds = %54, %3
  %31 = load i32, ptr %9, align 4, !tbaa !8
  %32 = load ptr, ptr %4, align 8, !tbaa !3
  %33 = call i32 @Abc_NtkPiNum(ptr noundef %32)
  %34 = icmp slt i32 %31, %33
  br i1 %34, label %35, label %39

35:                                               ; preds = %30
  %36 = load ptr, ptr %4, align 8, !tbaa !3
  %37 = load i32, ptr %9, align 4, !tbaa !8
  %38 = call ptr @Abc_NtkPi(ptr noundef %36, i32 noundef %37)
  store ptr %38, ptr %8, align 8, !tbaa !12
  br label %39

39:                                               ; preds = %35, %30
  %40 = phi i1 [ false, %30 ], [ true, %35 ]
  br i1 %40, label %41, label %57

41:                                               ; preds = %39
  %42 = load ptr, ptr %7, align 8, !tbaa !10
  %43 = getelementptr inbounds nuw %struct.Vec_Ptr_t_, ptr %42, i32 0, i32 2
  %44 = load ptr, ptr %43, align 8, !tbaa !14
  %45 = load ptr, ptr %8, align 8, !tbaa !12
  %46 = getelementptr inbounds nuw %struct.Abc_Obj_t_, ptr %45, i32 0, i32 2
  %47 = load i32, ptr %46, align 8, !tbaa !16
  %48 = sext i32 %47 to i64
  %49 = getelementptr inbounds ptr, ptr %44, i64 %48
  %50 = load ptr, ptr %49, align 8, !tbaa !20
  %51 = load i32, ptr %6, align 4, !tbaa !8
  %52 = load i32, ptr %5, align 4, !tbaa !8
  %53 = mul nsw i32 %51, %52
  call void @Sim_UtilSetRandom(ptr noundef %50, i32 noundef %53)
  br label %54

54:                                               ; preds = %41
  %55 = load i32, ptr %9, align 4, !tbaa !8
  %56 = add nsw i32 %55, 1
  store i32 %56, ptr %9, align 4, !tbaa !8
  br label %30, !llvm.loop !21

57:                                               ; preds = %39
  store i32 0, ptr %9, align 4, !tbaa !8
  br label %58

58:                                               ; preds = %120, %57
  %59 = load i32, ptr %9, align 4, !tbaa !8
  %60 = load ptr, ptr %4, align 8, !tbaa !3
  %61 = getelementptr inbounds nuw %struct.Abc_Ntk_t_, ptr %60, i32 0, i32 11
  %62 = load ptr, ptr %61, align 8, !tbaa !23
  %63 = call i32 @Vec_PtrSize(ptr noundef %62)
  %64 = icmp slt i32 %59, %63
  br i1 %64, label %65, label %69

65:                                               ; preds = %58
  %66 = load ptr, ptr %4, align 8, !tbaa !3
  %67 = load i32, ptr %9, align 4, !tbaa !8
  %68 = call ptr @Abc_NtkBox(ptr noundef %66, i32 noundef %67)
  store ptr %68, ptr %8, align 8, !tbaa !12
  br label %69

69:                                               ; preds = %65, %58
  %70 = phi i1 [ false, %58 ], [ true, %65 ]
  br i1 %70, label %71, label %123

71:                                               ; preds = %69
  %72 = load ptr, ptr %8, align 8, !tbaa !12
  %73 = call i32 @Abc_ObjIsLatch(ptr noundef %72)
  %74 = icmp ne i32 %73, 0
  br i1 %74, label %76, label %75

75:                                               ; preds = %71
  br label %119

76:                                               ; preds = %71
  %77 = load ptr, ptr %8, align 8, !tbaa !12
  %78 = call i32 @Abc_LatchIsInit0(ptr noundef %77)
  %79 = icmp ne i32 %78, 0
  br i1 %79, label %80, label %91

80:                                               ; preds = %76
  %81 = load ptr, ptr %7, align 8, !tbaa !10
  %82 = getelementptr inbounds nuw %struct.Vec_Ptr_t_, ptr %81, i32 0, i32 2
  %83 = load ptr, ptr %82, align 8, !tbaa !14
  %84 = load ptr, ptr %8, align 8, !tbaa !12
  %85 = getelementptr inbounds nuw %struct.Abc_Obj_t_, ptr %84, i32 0, i32 2
  %86 = load i32, ptr %85, align 8, !tbaa !16
  %87 = sext i32 %86 to i64
  %88 = getelementptr inbounds ptr, ptr %83, i64 %87
  %89 = load ptr, ptr %88, align 8, !tbaa !20
  %90 = load i32, ptr %6, align 4, !tbaa !8
  call void @Sim_UtilSetConst(ptr noundef %89, i32 noundef %90, i32 noundef 0)
  br label %118

91:                                               ; preds = %76
  %92 = load ptr, ptr %8, align 8, !tbaa !12
  %93 = call i32 @Abc_LatchIsInit1(ptr noundef %92)
  %94 = icmp ne i32 %93, 0
  br i1 %94, label %95, label %106

95:                                               ; preds = %91
  %96 = load ptr, ptr %7, align 8, !tbaa !10
  %97 = getelementptr inbounds nuw %struct.Vec_Ptr_t_, ptr %96, i32 0, i32 2
  %98 = load ptr, ptr %97, align 8, !tbaa !14
  %99 = load ptr, ptr %8, align 8, !tbaa !12
  %100 = getelementptr inbounds nuw %struct.Abc_Obj_t_, ptr %99, i32 0, i32 2
  %101 = load i32, ptr %100, align 8, !tbaa !16
  %102 = sext i32 %101 to i64
  %103 = getelementptr inbounds ptr, ptr %98, i64 %102
  %104 = load ptr, ptr %103, align 8, !tbaa !20
  %105 = load i32, ptr %6, align 4, !tbaa !8
  call void @Sim_UtilSetConst(ptr noundef %104, i32 noundef %105, i32 noundef 1)
  br label %117

106:                                              ; preds = %91
  %107 = load ptr, ptr %7, align 8, !tbaa !10
  %108 = getelementptr inbounds nuw %struct.Vec_Ptr_t_, ptr %107, i32 0, i32 2
  %109 = load ptr, ptr %108, align 8, !tbaa !14
  %110 = load ptr, ptr %8, align 8, !tbaa !12
  %111 = getelementptr inbounds nuw %struct.Abc_Obj_t_, ptr %110, i32 0, i32 2
  %112 = load i32, ptr %111, align 8, !tbaa !16
  %113 = sext i32 %112 to i64
  %114 = getelementptr inbounds ptr, ptr %109, i64 %113
  %115 = load ptr, ptr %114, align 8, !tbaa !20
  %116 = load i32, ptr %6, align 4, !tbaa !8
  call void @Sim_UtilSetRandom(ptr noundef %115, i32 noundef %116)
  br label %117

117:                                              ; preds = %106, %95
  br label %118

118:                                              ; preds = %117, %80
  br label %119

119:                                              ; preds = %118, %75
  br label %120

120:                                              ; preds = %119
  %121 = load i32, ptr %9, align 4, !tbaa !8
  %122 = add nsw i32 %121, 1
  store i32 %122, ptr %9, align 4, !tbaa !8
  br label %58, !llvm.loop !36

123:                                              ; preds = %69
  store i32 0, ptr %9, align 4, !tbaa !8
  br label %124

124:                                              ; preds = %138, %123
  %125 = load i32, ptr %9, align 4, !tbaa !8
  %126 = load i32, ptr %5, align 4, !tbaa !8
  %127 = icmp slt i32 %125, %126
  br i1 %127, label %128, label %141

128:                                              ; preds = %124
  %129 = load ptr, ptr %7, align 8, !tbaa !10
  %130 = load ptr, ptr %4, align 8, !tbaa !3
  %131 = load i32, ptr %9, align 4, !tbaa !8
  %132 = load i32, ptr %6, align 4, !tbaa !8
  %133 = load i32, ptr %9, align 4, !tbaa !8
  %134 = load i32, ptr %5, align 4, !tbaa !8
  %135 = sub nsw i32 %134, 1
  %136 = icmp slt i32 %133, %135
  %137 = zext i1 %136 to i32
  call void @Sim_SimulateSeqFrame(ptr noundef %129, ptr noundef %130, i32 noundef %131, i32 noundef %132, i32 noundef %137)
  br label %138

138:                                              ; preds = %128
  %139 = load i32, ptr %9, align 4, !tbaa !8
  %140 = add nsw i32 %139, 1
  store i32 %140, ptr %9, align 4, !tbaa !8
  br label %124, !llvm.loop !37

141:                                              ; preds = %124
  %142 = load ptr, ptr %7, align 8, !tbaa !10
  call void @llvm.lifetime.end.p0(i64 4, ptr %9) #5
  call void @llvm.lifetime.end.p0(i64 8, ptr %8) #5
  call void @llvm.lifetime.end.p0(i64 8, ptr %7) #5
  ret ptr %142
}