; Function Attrs: nounwind uwtable
define ptr @Sim_SimulateSeqRandom(ptr noundef %0, i32 noundef %1, i32 noundef %2) local_unnamed_addr #0 {
  %4 = getelementptr i8, ptr %0, i64 32
  %.val48 = load ptr, ptr %4, align 8, !tbaa !3
  %5 = getelementptr i8, ptr %.val48, i64 4
  %.val48.val = load i32, ptr %5, align 4, !tbaa !24
  %6 = mul nsw i32 %2, %1
  %7 = tail call ptr @Sim_UtilInfoAlloc(i32 noundef %.val48.val, i32 noundef %6, i32 noundef 0) #3
  %8 = tail call ptr @Abc_AigConst1(ptr noundef %0) #3
  %9 = getelementptr inbounds nuw i8, ptr %7, i64 8
  %10 = load ptr, ptr %9, align 8, !tbaa !26
  %11 = getelementptr inbounds nuw i8, ptr %8, i64 16
  %12 = load i32, ptr %11, align 8, !tbaa !27
  %13 = sext i32 %12 to i64
  %14 = getelementptr inbounds ptr, ptr %10, i64 %13
  %15 = load ptr, ptr %14, align 8, !tbaa !30
  tail call void @Sim_UtilSetConst(ptr noundef %15, i32 noundef %6, i32 noundef 1) #3
  %16 = getelementptr i8, ptr %0, i64 40
  %.val4957 = load ptr, ptr %16, align 8, !tbaa !31
  %17 = getelementptr i8, ptr %.val4957, i64 4
  %.val49.val58 = load i32, ptr %17, align 4, !tbaa !24
  %18 = icmp sgt i32 %.val49.val58, 0
  br i1 %18, label %.lr.ph, label %.critedge.preheader

.critedge.preheader:                              ; preds = %.lr.ph, %3
  %19 = getelementptr inbounds nuw i8, ptr %0, i64 80
  %20 = load ptr, ptr %19, align 8, !tbaa !32
  %21 = getelementptr i8, ptr %20, i64 4
  %.val61 = load i32, ptr %21, align 4, !tbaa !24
  %22 = icmp sgt i32 %.val61, 0
  br i1 %22, label %.lr.ph63, label %.critedge2.preheader

.lr.ph:                                           ; preds = %3, %.lr.ph
  %indvars.iv = phi i64 [ %indvars.iv.next, %.lr.ph ], [ 0, %3 ]
  %.val4960 = phi ptr [ %.val49, %.lr.ph ], [ %.val4957, %3 ]
  %23 = getelementptr i8, ptr %.val4960, i64 8
  %.val50.val = load ptr, ptr %23, align 8, !tbaa !26
  %24 = getelementptr inbounds nuw ptr, ptr %.val50.val, i64 %indvars.iv
  %25 = load ptr, ptr %24, align 8, !tbaa !30
  %26 = load ptr, ptr %9, align 8, !tbaa !26
  %27 = getelementptr inbounds nuw i8, ptr %25, i64 16
  %28 = load i32, ptr %27, align 8, !tbaa !27
  %29 = sext i32 %28 to i64
  %30 = getelementptr inbounds ptr, ptr %26, i64 %29
  %31 = load ptr, ptr %30, align 8, !tbaa !30
  tail call void @Sim_UtilSetRandom(ptr noundef %31, i32 noundef %6) #3
  %indvars.iv.next = add nuw nsw i64 %indvars.iv, 1
  %.val49 = load ptr, ptr %16, align 8, !tbaa !31
  %32 = getelementptr i8, ptr %.val49, i64 4
  %.val49.val = load i32, ptr %32, align 4, !tbaa !24
  %33 = sext i32 %.val49.val to i64
  %34 = icmp slt i64 %indvars.iv.next, %33
  br i1 %34, label %.lr.ph, label %.critedge.preheader, !llvm.loop !33

.critedge2.preheader:                             ; preds = %.critedge, %.critedge.preheader
  %35 = icmp sgt i32 %1, 0
  br i1 %35, label %.lr.ph65, label %.critedge2._crit_edge

.lr.ph65:                                         ; preds = %.critedge2.preheader
  %36 = add nsw i32 %1, -1
  br label %.critedge2

.lr.ph63:                                         ; preds = %.critedge.preheader, %.critedge
  %indvars.iv67 = phi i64 [ %indvars.iv.next68, %.critedge ], [ 0, %.critedge.preheader ]
  %37 = phi ptr [ %54, %.critedge ], [ %20, %.critedge.preheader ]
  %38 = getelementptr i8, ptr %37, i64 8
  %.val51.val = load ptr, ptr %38, align 8, !tbaa !26
  %39 = getelementptr inbounds nuw ptr, ptr %.val51.val, i64 %indvars.iv67
  %40 = load ptr, ptr %39, align 8, !tbaa !30
  %41 = getelementptr i8, ptr %40, i64 20
  %.val52 = load i32, ptr %41, align 4
  %42 = and i32 %.val52, 15
  %.not = icmp eq i32 %42, 8
  br i1 %.not, label %43, label %.critedge

43:                                               ; preds = %.lr.ph63
  %44 = getelementptr i8, ptr %40, i64 56
  %.val53 = load ptr, ptr %44, align 8, !tbaa !35
  %magicptr = ptrtoint ptr %.val53 to i64
  %45 = load ptr, ptr %9, align 8, !tbaa !26
  %46 = getelementptr inbounds nuw i8, ptr %40, i64 16
  %47 = load i32, ptr %46, align 8, !tbaa !27
  %48 = sext i32 %47 to i64
  %49 = getelementptr inbounds ptr, ptr %45, i64 %48
  %50 = load ptr, ptr %49, align 8, !tbaa !30
  switch i64 %magicptr, label %53 [
    i64 1, label %51
    i64 2, label %52
  ]

51:                                               ; preds = %43
  tail call void @Sim_UtilSetConst(ptr noundef %50, i32 noundef %2, i32 noundef 0) #3
  br label %.critedge

52:                                               ; preds = %43
  tail call void @Sim_UtilSetConst(ptr noundef %50, i32 noundef %2, i32 noundef 1) #3
  br label %.critedge

53:                                               ; preds = %43
  tail call void @Sim_UtilSetRandom(ptr noundef %50, i32 noundef %2) #3
  br label %.critedge

.critedge:                                        ; preds = %.lr.ph63, %52, %53, %51
  %indvars.iv.next68 = add nuw nsw i64 %indvars.iv67, 1
  %54 = load ptr, ptr %19, align 8, !tbaa !32
  %55 = getelementptr i8, ptr %54, i64 4
  %.val = load i32, ptr %55, align 4, !tbaa !24
  %56 = sext i32 %.val to i64
  %57 = icmp slt i64 %indvars.iv.next68, %56
  br i1 %57, label %.lr.ph63, label %.critedge2.preheader, !llvm.loop !36

.critedge2:                                       ; preds = %.lr.ph65, %.critedge2
  %.264 = phi i32 [ 0, %.lr.ph65 ], [ %60, %.critedge2 ]
  %58 = icmp slt i32 %.264, %36
  %59 = zext i1 %58 to i32
  tail call fastcc void @Sim_SimulateSeqFrame(ptr noundef %7, ptr noundef %0, i32 noundef %.264, i32 noundef %2, i32 noundef %59)
  %60 = add nuw nsw i32 %.264, 1
  %exitcond.not = icmp eq i32 %60, %1
  br i1 %exitcond.not, label %.critedge2._crit_edge, label %.critedge2, !llvm.loop !37

.critedge2._crit_edge:                            ; preds = %.critedge2, %.critedge2.preheader
  ret ptr %7
}